target datalayout = "e-m:e-p270:32:32-p271:32:32-p272:64:64-i64:64-i128:128-f80:128-n8:16:32:64-S128"
target triple = "x86_64-pc-linux-gnu"

%struct._asn1_ctx_t = type { i32, i32, i8, ptr, ptr, ptr, ptr, ptr, %struct.anon, %struct.anon.2, %struct.anon.3, ptr }
%struct.anon = type { i32, i8, i8, i8, ptr, ptr, i32, i32, ptr, ptr, ptr, %union.anon }
%union.anon = type { %struct.anon.0 }
%struct.anon.0 = type { ptr }
%struct.anon.2 = type { ptr, ptr, ptr }
%struct.anon.3 = type { i32, i8, ptr, i32, i32, ptr, ptr, ptr, %union.anon.4 }
%union.anon.4 = type { %struct.anon.5 }
%struct.anon.5 = type { ptr }
%struct._packet_info = type { ptr, ptr, i32, i32, %struct.nstime_t, %struct.nstime_t, %struct.nstime_t, i8, ptr, ptr, ptr, ptr, %struct._address, %struct._address, %struct._address, %struct._address, %struct._address, %struct._address, i32, ptr, i8, [3 x i8], %struct.anon.7, i32, i32, i32, i32, ptr, i8, ptr, ptr, i16, i16, i32, i32, i16, i32, i32, ptr, ptr, ptr, i8, i8, i16, i16, i16, i32, i16, i16, ptr, ptr, ptr, ptr, ptr, i32, i32 }
%struct.nstime_t = type { i64, i32 }
%struct._address = type { i32, i32, ptr, ptr }
%struct.anon.7 = type { i8, [3 x i8] }
%struct.p1_address_ctx = type { i8, ptr, i8, ptr }

@dissect_p1_BuiltInContentType_U.ict = internal global i32 -1, align 4
@.str.1660 = private unnamed_addr constant [11 x i8] c"2.6.1.10.0\00", align 1
@.str.1661 = private unnamed_addr constant [11 x i8] c"2.6.1.10.1\00", align 1

; Function Attrs: null_pointer_is_valid sspstrong uwtable
define internal i32 @dissect_p1_BuiltInContentType_U(i1 noundef zeroext %0, ptr noundef %1, i32 noundef %2, ptr noundef %3, ptr noundef %4, i32 noundef %5) #0 {
  %7 = alloca i8, align 1
  %8 = alloca ptr, align 8
  %9 = alloca i32, align 4
  %10 = alloca ptr, align 8
  %11 = alloca ptr, align 8
  %12 = alloca i32, align 4
  %13 = alloca ptr, align 8
  %14 = zext i1 %0 to i8
  store i8 %14, ptr %7, align 1
  store ptr %1, ptr %8, align 8
  store i32 %2, ptr %9, align 4
  store ptr %3, ptr %10, align 8
  store ptr %4, ptr %11, align 8
  store i32 %5, ptr %12, align 4
  call void @llvm.lifetime.start.p0(i64 8, ptr %13) #5
  %15 = load ptr, ptr %10, align 8
  %16 = getelementptr inbounds nuw %struct._asn1_ctx_t, ptr %15, i32 0, i32 9
  %17 = getelementptr inbounds nuw %struct.anon.2, ptr %16, i32 0, i32 2
  %18 = load ptr, ptr %17, align 8
  %19 = icmp eq ptr %18, null
  br i1 %19, label %20, label %30

20:                                               ; preds = %6
  %21 = load ptr, ptr %10, align 8
  %22 = getelementptr inbounds nuw %struct._asn1_ctx_t, ptr %21, i32 0, i32 3
  %23 = load ptr, ptr %22, align 8
  %24 = getelementptr inbounds nuw %struct._packet_info, ptr %23, i32 0, i32 51
  %25 = load ptr, ptr %24, align 8
  %26 = call noalias ptr @wmem_alloc0(ptr noundef %25, i64 noundef 32) #6
  %27 = load ptr, ptr %10, align 8
  %28 = getelementptr inbounds nuw %struct._asn1_ctx_t, ptr %27, i32 0, i32 9
  %29 = getelementptr inbounds nuw %struct.anon.2, ptr %28, i32 0, i32 2
  store ptr %26, ptr %29, align 8
  br label %30

30:                                               ; preds = %20, %6
  %31 = load ptr, ptr %10, align 8
  %32 = getelementptr inbounds nuw %struct._asn1_ctx_t, ptr %31, i32 0, i32 9
  %33 = getelementptr inbounds nuw %struct.anon.2, ptr %32, i32 0, i32 2
  %34 = load ptr, ptr %33, align 8
  store ptr %34, ptr %13, align 8
  %35 = load i8, ptr %7, align 1, !range !6, !noundef !7
  %36 = trunc i8 %35 to i1
  %37 = load ptr, ptr %10, align 8
  %38 = load ptr, ptr %11, align 8
  %39 = load ptr, ptr %8, align 8
  %40 = load i32, ptr %9, align 4
  %41 = load i32, ptr %12, align 4
  %42 = call i32 @dissect_ber_constrained_integer(i1 noundef zeroext %36, ptr noundef %37, ptr noundef %38, ptr noundef %39, i32 noundef %40, i32 noundef 0, i32 noundef 32767, i32 noundef %41, ptr noundef @dissect_p1_BuiltInContentType_U.ict)
  store i32 %42, ptr %9, align 4
  %43 = load i32, ptr @dissect_p1_BuiltInContentType_U.ict, align 4
  switch i32 %43, label %62 [
    i32 2, label %44
    i32 22, label %53
  ]

44:                                               ; preds = %30
  %45 = load ptr, ptr %10, align 8
  %46 = getelementptr inbounds nuw %struct._asn1_ctx_t, ptr %45, i32 0, i32 3
  %47 = load ptr, ptr %46, align 8
  %48 = getelementptr inbounds nuw %struct._packet_info, ptr %47, i32 0, i32 51
  %49 = load ptr, ptr %48, align 8
  %50 = call noalias ptr @wmem_strdup(ptr noundef %49, ptr noundef @.str.1660)
  %51 = load ptr, ptr %13, align 8
  %52 = getelementptr inbounds nuw %struct.p1_address_ctx, ptr %51, i32 0, i32 1
  store ptr %50, ptr %52, align 8
  br label %65

53:                                               ; preds = %30
  %54 = load ptr, ptr %10, align 8
  %55 = getelementptr inbounds nuw %struct._asn1_ctx_t, ptr %54, i32 0, i32 3
  %56 = load ptr, ptr %55, align 8
  %57 = getelementptr inbounds nuw %struct._packet_info, ptr %56, i32 0, i32 51
  %58 = load ptr, ptr %57, align 8
  %59 = call noalias ptr @wmem_strdup(ptr noundef %58, ptr noundef @.str.1661)
  %60 = load ptr, ptr %13, align 8
  %61 = getelementptr inbounds nuw %struct.p1_address_ctx, ptr %60, i32 0, i32 1
  store ptr %59, ptr %61, align 8
  br label %65

62:                                               ; preds = %30
  %63 = load ptr, ptr %13, align 8
  %64 = getelementptr inbounds nuw %struct.p1_address_ctx, ptr %63, i32 0, i32 1
  store ptr null, ptr %64, align 8
  br label %65

65:                                               ; preds = %62, %53, %44
  %66 = load i32, ptr %9, align 4
  call void @llvm.lifetime.end.p0(i64 8, ptr %13) #5
  ret i32 %66
}