; Function Attrs: null_pointer_is_valid sspstrong uwtable
define internal i32 @dissect_p1_BuiltInContentType_U(i1 noundef zeroext %0, ptr noundef %1, i32 noundef %2, ptr noundef %3, ptr noundef %4, i32 noundef %5) #0 {
  %7 = getelementptr inbounds nuw i8, ptr %3, i64 136
  %8 = load ptr, ptr %7, align 8
  %9 = icmp eq ptr %8, null
  br i1 %9, label %10, label %16

10:                                               ; preds = %6
  %11 = getelementptr inbounds nuw i8, ptr %3, i64 16
  %12 = load ptr, ptr %11, align 8
  %13 = getelementptr inbounds nuw i8, ptr %12, i64 408
  %14 = load ptr, ptr %13, align 8
  %15 = tail call noalias dereferenceable_or_null(32) ptr @wmem_alloc0(ptr noundef %14, i64 noundef 32) #6
  store ptr %15, ptr %7, align 8
  br label %16

16:                                               ; preds = %10, %6
  %17 = phi ptr [ %15, %10 ], [ %8, %6 ]
  %18 = tail call i32 @dissect_ber_constrained_integer(i1 noundef zeroext %0, ptr noundef %3, ptr noundef %4, ptr noundef %1, i32 noundef %2, i32 noundef 0, i32 noundef 32767, i32 noundef %5, ptr noundef nonnull @dissect_p1_BuiltInContentType_U.ict)
  %19 = load i32, ptr @dissect_p1_BuiltInContentType_U.ict, align 4
  switch i32 %19, label %26 [
    i32 2, label %.sink.split
    i32 22, label %20
  ]

20:                                               ; preds = %16
  br label %.sink.split

.sink.split:                                      ; preds = %16, %20
  %.str.1661.sink = phi ptr [ @.str.1661, %20 ], [ @.str.1660, %16 ]
  %21 = getelementptr inbounds nuw i8, ptr %3, i64 16
  %22 = load ptr, ptr %21, align 8
  %23 = getelementptr inbounds nuw i8, ptr %22, i64 408
  %24 = load ptr, ptr %23, align 8
  %25 = tail call noalias ptr @wmem_strdup(ptr noundef %24, ptr noundef nonnull %.str.1661.sink)
  br label %26

26:                                               ; preds = %.sink.split, %16
  %.sink = phi ptr [ null, %16 ], [ %25, %.sink.split ]
  %27 = getelementptr inbounds nuw i8, ptr %17, i64 8
  store ptr %.sink, ptr %27, align 8
  ret i32 %18
}